; ModuleID = '46/2393.c'
source_filename = "46/2393.c"
target datalayout = "e-m:e-p270:32:32-p271:32:32-p272:64:64-i64:64-f80:128-n8:16:32:64-S128"
target triple = "x86_64-pc-linux-gnu"

@.str = private unnamed_addr constant [6 x i8] c"%d %d\00", align 1
@.str.1 = private unnamed_addr constant [3 x i8] c"%d\00", align 1
@.str.2 = private unnamed_addr constant [4 x i8] c"%d\0A\00", align 1

; Function Attrs: noinline nounwind uwtable
define dso_local i32 @main() #0 {
  %1 = alloca i32, align 4
  %2 = alloca [100 x [100 x i32]], align 16
  %3 = alloca i32, align 4
  %4 = alloca i32, align 4
  %5 = alloca i32, align 4
  %6 = alloca i32, align 4
  %7 = alloca i32, align 4
  %8 = alloca i32, align 4
  %9 = alloca i32, align 4
  %10 = alloca i32, align 4
  %11 = alloca double, align 8
  store i32 0, i32* %1, align 4
  store i32 0, i32* %8, align 4
  store double 0.000000e+00, double* %11, align 8
  %12 = call i32 (i8*, ...) @__isoc99_scanf(i8* getelementptr inbounds ([6 x i8], [6 x i8]* @.str, i64 0, i64 0), i32* %5, i32* %6)
  store i32 0, i32* %3, align 4
  br label %13

13:                                               ; preds = %34, %0
  %14 = load i32, i32* %3, align 4
  %15 = load i32, i32* %5, align 4
  %16 = icmp slt i32 %14, %15
  br i1 %16, label %17, label %37

17:                                               ; preds = %13
  store i32 0, i32* %4, align 4
  br label %18

18:                                               ; preds = %30, %17
  %19 = load i32, i32* %4, align 4
  %20 = load i32, i32* %6, align 4
  %21 = icmp slt i32 %19, %20
  br i1 %21, label %22, label %33

22:                                               ; preds = %18
  %23 = load i32, i32* %3, align 4
  %24 = sext i32 %23 to i64
  %25 = getelementptr inbounds [100 x [100 x i32]], [100 x [100 x i32]]* %2, i64 0, i64 %24
  %26 = load i32, i32* %4, align 4
  %27 = sext i32 %26 to i64
  %28 = getelementptr inbounds [100 x i32], [100 x i32]* %25, i64 0, i64 %27
  %29 = call i32 (i8*, ...) @__isoc99_scanf(i8* getelementptr inbounds ([3 x i8], [3 x i8]* @.str.1, i64 0, i64 0), i32* %28)
  br label %30

30:                                               ; preds = %22
  %31 = load i32, i32* %4, align 4
  %32 = add nsw i32 %31, 1
  store i32 %32, i32* %4, align 4
  br label %18

33:                                               ; preds = %18
  br label %34

34:                                               ; preds = %33
  %35 = load i32, i32* %3, align 4
  %36 = add nsw i32 %35, 1
  store i32 %36, i32* %3, align 4
  br label %13

37:                                               ; preds = %13
  store i32 0, i32* %3, align 4
  store i32 0, i32* %4, align 4
  br label %38

38:                                               ; preds = %60, %37
  %39 = load i32, i32* %4, align 4
  %40 = load i32, i32* %6, align 4
  %41 = icmp slt i32 %39, %40
  br i1 %41, label %42, label %63

42:                                               ; preds = %38
  %43 = load i32, i32* %3, align 4
  %44 = sext i32 %43 to i64
  %45 = getelementptr inbounds [100 x [100 x i32]], [100 x [100 x i32]]* %2, i64 0, i64 %44
  %46 = load i32, i32* %4, align 4
  %47 = sext i32 %46 to i64
  %48 = getelementptr inbounds [100 x i32], [100 x i32]* %45, i64 0, i64 %47
  %49 = load i32, i32* %48, align 4
  %50 = call i32 (i8*, ...) @printf(i8* getelementptr inbounds ([4 x i8], [4 x i8]* @.str.2, i64 0, i64 0), i32 %49)
  %51 = load i32, i32* %8, align 4
  %52 = add nsw i32 %51, 1
  store i32 %52, i32* %8, align 4
  %53 = load i32, i32* %8, align 4
  %54 = load i32, i32* %5, align 4
  %55 = load i32, i32* %6, align 4
  %56 = mul nsw i32 %54, %55
  %57 = icmp eq i32 %53, %56
  br i1 %57, label %58, label %59

58:                                               ; preds = %42
  store i32 0, i32* %1, align 4
  br label %142

59:                                               ; preds = %42
  br label %60

60:                                               ; preds = %59
  %61 = load i32, i32* %4, align 4
  %62 = add nsw i32 %61, 1
  store i32 %62, i32* %4, align 4
  br label %38

63:                                               ; preds = %38
  store i32 0, i32* %3, align 4
  %64 = load i32, i32* %6, align 4
  %65 = sub nsw i32 %64, 1
  store i32 %65, i32* %4, align 4
  store i32 1, i32* %7, align 4
  br label %66

66:                                               ; preds = %139, %63
  %67 = load i32, i32* %7, align 4
  %68 = icmp sgt i32 %67, 0
  br i1 %68, label %69, label %142

69:                                               ; preds = %66
  %70 = load i32, i32* %5, align 4
  %71 = load i32, i32* %7, align 4
  %72 = sub nsw i32 %70, %71
  store i32 %72, i32* %9, align 4
  br label %73

73:                                               ; preds = %99, %69
  %74 = load i32, i32* %9, align 4
  %75 = icmp sgt i32 %74, 0
  br i1 %75, label %76, label %102

76:                                               ; preds = %73
  %77 = load double, double* %11, align 8
  %78 = call double @pow(double -1.000000e+00, double %77) #3
  %79 = fptosi double %78 to i32
  %80 = load i32, i32* %3, align 4
  %81 = add nsw i32 %80, %79
  store i32 %81, i32* %3, align 4
  %82 = load i32, i32* %3, align 4
  %83 = sext i32 %82 to i64
  %84 = getelementptr inbounds [100 x [100 x i32]], [100 x [100 x i32]]* %2, i64 0, i64 %83
  %85 = load i32, i32* %4, align 4
  %86 = sext i32 %85 to i64
  %87 = getelementptr inbounds [100 x i32], [100 x i32]* %84, i64 0, i64 %86
  %88 = load i32, i32* %87, align 4
  %89 = call i32 (i8*, ...) @printf(i8* getelementptr inbounds ([4 x i8], [4 x i8]* @.str.2, i64 0, i64 0), i32 %88)
  %90 = load i32, i32* %8, align 4
  %91 = add nsw i32 %90, 1
  store i32 %91, i32* %8, align 4
  %92 = load i32, i32* %8, align 4
  %93 = load i32, i32* %5, align 4
  %94 = load i32, i32* %6, align 4
  %95 = mul nsw i32 %93, %94
  %96 = icmp eq i32 %92, %95
  br i1 %96, label %97, label %98

97:                                               ; preds = %76
  store i32 0, i32* %1, align 4
  br label %142

98:                                               ; preds = %76
  br label %99

99:                                               ; preds = %98
  %100 = load i32, i32* %9, align 4
  %101 = add nsw i32 %100, -1
  store i32 %101, i32* %9, align 4
  br label %73

102:                                              ; preds = %73
  %103 = load i32, i32* %6, align 4
  %104 = load i32, i32* %7, align 4
  %105 = sub nsw i32 %103, %104
  store i32 %105, i32* %9, align 4
  br label %106

106:                                              ; preds = %133, %102
  %107 = load i32, i32* %9, align 4
  %108 = icmp sgt i32 %107, 0
  br i1 %108, label %109, label %136

109:                                              ; preds = %106
  %110 = load double, double* %11, align 8
  %111 = fadd double %110, 1.000000e+00
  %112 = call double @pow(double -1.000000e+00, double %111) #3
  %113 = fptosi double %112 to i32
  %114 = load i32, i32* %4, align 4
  %115 = add nsw i32 %114, %113
  store i32 %115, i32* %4, align 4
  %116 = load i32, i32* %3, align 4
  %117 = sext i32 %116 to i64
  %118 = getelementptr inbounds [100 x [100 x i32]], [100 x [100 x i32]]* %2, i64 0, i64 %117
  %119 = load i32, i32* %4, align 4
  %120 = sext i32 %119 to i64
  %121 = getelementptr inbounds [100 x i32], [100 x i32]* %118, i64 0, i64 %120
  %122 = load i32, i32* %121, align 4
  %123 = call i32 (i8*, ...) @printf(i8* getelementptr inbounds ([4 x i8], [4 x i8]* @.str.2, i64 0, i64 0), i32 %122)
  %124 = load i32, i32* %8, align 4
  %125 = add nsw i32 %124, 1
  store i32 %125, i32* %8, align 4
  %126 = load i32, i32* %8, align 4
  %127 = load i32, i32* %5, align 4
  %128 = load i32, i32* %6, align 4
  %129 = mul nsw i32 %127, %128
  %130 = icmp eq i32 %126, %129
  br i1 %130, label %131, label %132

131:                                              ; preds = %109
  store i32 0, i32* %1, align 4
  br label %142

132:                                              ; preds = %109
  br label %133

133:                                              ; preds = %132
  %134 = load i32, i32* %9, align 4
  %135 = add nsw i32 %134, -1
  store i32 %135, i32* %9, align 4
  br label %106

136:                                              ; preds = %106
  %137 = load double, double* %11, align 8
  %138 = fadd double %137, 1.000000e+00
  store double %138, double* %11, align 8
  br label %139

139:                                              ; preds = %136
  %140 = load i32, i32* %7, align 4
  %141 = add nsw i32 %140, 1
  store i32 %141, i32* %7, align 4
  br label %66

142:                                              ; preds = %58, %97, %131, %66
  %143 = load i32, i32* %1, align 4
  ret i32 %143
}

declare dso_local i32 @__isoc99_scanf(i8*, ...) #1

declare dso_local i32 @printf(i8*, ...) #1

; Function Attrs: nounwind
declare dso_local double @pow(double, double) #2


!llvm.module.flags = !{!0}
!llvm.ident = !{!1}

!0 = !{i32 1, !"wchar_size", i32 4}
!1 = !{!"clang version 10.0.0-4ubuntu1 "}
